-----BEGIN CERTIFICATE-----
MIIDgjCCAmoCCQDKNeM0nhAY4TANBgkqhkiG9w0BAQUFADCBgjELMAkGA1UEBhMC
SlAxETAPBgNVBAgTCEthbmFnYXdhMREwDwYDVQQHEwhZb2tvc3VrYTETMBEGA1UE
ChMKTlRUIERPQ09NTzEbMBkGA1UECxMSRE9DT01PIE9TViBUZXN0IENBMRswGQYD
VQQDExJET0NPTU8gT1NWIFRlc3QgQ0EwHhcNMTMwMjI3MDUxMDQyWhcNMzMwMjIy
MDUxMDQyWjCBgjELMAkGA1UEBhMCSlAxETAPBgNVBAgTCEthbmFnYXdhMREwDwYD
VQQHEwhZb2tvc3VrYTETMBEGA1UEChMKTlRUIERPQ09NTzEbMBkGA1UECxMSRE9D
T01PIE9TViBUZXN0IENBMRswGQYDVQQDExJET0NPTU8gT1NWIFRlc3QgQ0EwggEi
MA0GCSqGSIb3DQEBAQUAA4IBDwAwggEKAoIBAQDRPla9yf6VgTvCxMnsvsY0F0HJ
89d0AA5NxVIJGM4XhfcX6UoeIwzHiEin0VFrvyHQnxL6nUPR6/4svWgqv+5f19UH
ErsSCxTljB9bYleLD1jFrvDvkYoa4ygeumqjnaCn+bVIN3AwN9NxP0jqy/kdsVQu
br22M1IxMy6KQYkscAc/rfVS1KY91bgOHVqhE81bvKdGqF49k3z8gXq9aoLu1j7P
G0U2QXW9+0Bj+X9/TAtnETOYu/TaK9lbQmW2Uttfz9HYZixBPOdnto9HRfI5igKI
L4QB5EsyswbqQUz2r9uobwATzIlJ30+7LpQCPDbmyCb/6rqezh0a4upKTWVnAgMB
AAEwDQYJKoZIhvcNAQEFBQADggEBAFxwgfQ3nXeIDcHc1+hMaAjlwiQKz1Iiyv06
G4lauwtvGlUAW69O11Bp22vsVRD7Q67taX78dZT/AYliu6zOh3pNCw5aqFMYGVoP
e6fiTCjoed7YP6HcHGXzaC0/d1tqjAoyVJjsDcRFXkzZoW5AFDaKL3cMteq2wuE9
SF9CMrFyPcD/nrQWtUNb2dseMZzSJLi2+mLZltcm27PdA3ohRWfUJz74JhcHG9I5
aefLh120qSeifKHud/hNGBbuIP8N/MdHi24rXbtx/RfQnKMsKmIKTnx0lb5gCSJW
YUdMQpUB/LBhtDuopcxpLS3fvlI/kKuNr8zc/pIVSgTE2bBesUw=
-----END CERTIFICATE-----
Certificate:
    Data:
        Version: 1 (0x0)
        Serial Number:
            ca:35:e3:34:9e:10:18:e1
        Signature Algorithm: sha1WithRSAEncryption
        Issuer: C=JP, ST=Kanagawa, L=Yokosuka, O=NTT DOCOMO, OU=DOCOMO OSV Test CA, CN=DOCOMO OSV Test CA
        Validity
            Not Before: Feb 27 05:10:42 2013 GMT
            Not After : Feb 22 05:10:42 2033 GMT
        Subject: C=JP, ST=Kanagawa, L=Yokosuka, O=NTT DOCOMO, OU=DOCOMO OSV Test CA, CN=DOCOMO OSV Test CA
        Subject Public Key Info:
            Public Key Algorithm: rsaEncryption
            RSA Public Key: (2048 bit)
                Modulus (2048 bit):
                    00:d1:3e:56:bd:c9:fe:95:81:3b:c2:c4:c9:ec:be:
                    c6:34:17:41:c9:f3:d7:74:00:0e:4d:c5:52:09:18:
                    ce:17:85:f7:17:e9:4a:1e:23:0c:c7:88:48:a7:d1:
                    51:6b:bf:21:d0:9f:12:fa:9d:43:d1:eb:fe:2c:bd:
                    68:2a:bf:ee:5f:d7:d5:07:12:bb:12:0b:14:e5:8c:
                    1f:5b:62:57:8b:0f:58:c5:ae:f0:ef:91:8a:1a:e3:
                    28:1e:ba:6a:a3:9d:a0:a7:f9:b5:48:37:70:30:37:
                    d3:71:3f:48:ea:cb:f9:1d:b1:54:2e:6e:bd:b6:33:
                    52:31:33:2e:8a:41:89:2c:70:07:3f:ad:f5:52:d4:
                    a6:3d:d5:b8:0e:1d:5a:a1:13:cd:5b:bc:a7:46:a8:
                    5e:3d:93:7c:fc:81:7a:bd:6a:82:ee:d6:3e:cf:1b:
                    45:36:41:75:bd:fb:40:63:f9:7f:7f:4c:0b:67:11:
                    33:98:bb:f4:da:2b:d9:5b:42:65:b6:52:db:5f:cf:
                    d1:d8:66:2c:41:3c:e7:67:b6:8f:47:45:f2:39:8a:
                    02:88:2f:84:01:e4:4b:32:b3:06:ea:41:4c:f6:af:
                    db:a8:6f:00:13:cc:89:49:df:4f:bb:2e:94:02:3c:
                    36:e6:c8:26:ff:ea:ba:9e:ce:1d:1a:e2:ea:4a:4d:
                    65:67
                Exponent: 65537 (0x10001)
    Signature Algorithm: sha1WithRSAEncryption
        5c:70:81:f4:37:9d:77:88:0d:c1:dc:d7:e8:4c:68:08:e5:c2:
        24:0a:cf:52:22:ca:fd:3a:1b:89:5a:bb:0b:6f:1a:55:00:5b:
        af:4e:d7:50:69:db:6b:ec:55:10:fb:43:ae:ed:69:7e:fc:75:
        94:ff:01:89:62:bb:ac:ce:87:7a:4d:0b:0e:5a:a8:53:18:19:
        5a:0f:7b:a7:e2:4c:28:e8:79:de:d8:3f:a1:dc:1c:65:f3:68:
        2d:3f:77:5b:6a:8c:0a:32:54:98:ec:0d:c4:45:5e:4c:d9:a1:
        6e:40:14:36:8a:2f:77:0c:b5:ea:b6:c2:e1:3d:48:5f:42:32:
        b1:72:3d:c0:ff:9e:b4:16:b5:43:5b:d9:db:1e:31:9c:d2:24:
        b8:b6:fa:62:d9:96:d7:26:db:b3:dd:03:7a:21:45:67:d4:27:
        3e:f8:26:17:07:1b:d2:39:69:e7:cb:87:5d:b4:a9:27:a2:7c:
        a1:ee:77:f8:4d:18:16:ee:20:ff:0d:fc:c7:47:8b:6e:2b:5d:
        bb:71:fd:17:d0:9c:a3:2c:2a:62:0a:4e:7c:74:95:be:60:09:
        22:56:61:47:4c:42:95:01:fc:b0:61:b4:3b:a8:a5:cc:69:2d:
        2d:df:be:52:3f:90:ab:8d:af:cc:dc:fe:92:15:4a:04:c4:d9:
        b0:5e:b1:4c
